; Function Attrs: nounwind uwtable
define internal fastcc void @arena_prepare_base_deletion_sync(ptr noundef %0, ptr noundef nonnull %1, ptr noundef nonnull captures(none) %2, ptr noundef nonnull captures(none) %3) unnamed_addr #0 {
  %5 = getelementptr inbounds nuw i8, ptr %1, i64 72
  %6 = tail call i32 @pthread_mutex_trylock(ptr noundef nonnull %5) #18
  %.not = icmp eq i32 %6, 0
  br i1 %.not, label %7, label %malloc_mutex_trylock.exit

7:                                                ; preds = %4
  %8 = getelementptr inbounds nuw i8, ptr %1, i64 56
  %9 = load i64, ptr %8, align 8, !tbaa !72
  %10 = add i64 %9, 1
  store i64 %10, ptr %8, align 8, !tbaa !72
  %11 = getelementptr inbounds nuw i8, ptr %1, i64 48
  %12 = load ptr, ptr %11, align 8, !tbaa !74
  %.not.i.i = icmp eq ptr %12, %0
  br i1 %.not.i.i, label %17, label %13

13:                                               ; preds = %7
  store ptr %0, ptr %11, align 8, !tbaa !74
  %14 = getelementptr inbounds nuw i8, ptr %1, i64 40
  %15 = load i64, ptr %14, align 8, !tbaa !75
  %16 = add i64 %15, 1
  store i64 %16, ptr %14, align 8, !tbaa !75
  br label %17

17:                                               ; preds = %7, %13
  %18 = getelementptr inbounds nuw i8, ptr %1, i64 64
  store atomic i8 0, ptr %18 monotonic, align 1
  %19 = tail call i32 @pthread_mutex_unlock(ptr noundef nonnull %5) #18
  br label %45

malloc_mutex_trylock.exit:                        ; preds = %4
  %20 = load i32, ptr %3, align 4, !tbaa !3
  %21 = add i32 %20, 1
  %22 = zext i32 %20 to i64
  %23 = getelementptr inbounds nuw ptr, ptr %2, i64 %22
  store ptr %1, ptr %23, align 8, !tbaa !165
  %24 = icmp eq i32 %21, 32
  br i1 %24, label %.lr.ph.i, label %arena_prepare_base_deletion_sync_finish.exit

.lr.ph.i:                                         ; preds = %malloc_mutex_trylock.exit, %malloc_mutex_lock.exit.i
  %indvars.iv.i = phi i64 [ %indvars.iv.next.i, %malloc_mutex_lock.exit.i ], [ 0, %malloc_mutex_trylock.exit ]
  %25 = getelementptr inbounds nuw ptr, ptr %2, i64 %indvars.iv.i
  %26 = load ptr, ptr %25, align 8, !tbaa !165
  %27 = getelementptr inbounds nuw i8, ptr %26, i64 72
  %28 = tail call i32 @pthread_mutex_trylock(ptr noundef nonnull %27) #18
  %.not.i.i14 = icmp eq i32 %28, 0
  br i1 %.not.i.i14, label %31, label %29

29:                                               ; preds = %.lr.ph.i
  tail call void @duckdb_je_malloc_mutex_lock_slow(ptr noundef nonnull %26) #18
  %30 = getelementptr inbounds nuw i8, ptr %26, i64 64
  store atomic i8 1, ptr %30 monotonic, align 1
  br label %31

31:                                               ; preds = %29, %.lr.ph.i
  %32 = getelementptr inbounds nuw i8, ptr %26, i64 56
  %33 = load i64, ptr %32, align 8, !tbaa !72
  %34 = add i64 %33, 1
  store i64 %34, ptr %32, align 8, !tbaa !72
  %35 = getelementptr inbounds nuw i8, ptr %26, i64 48
  %36 = load ptr, ptr %35, align 8, !tbaa !74
  %.not.i.i.i = icmp eq ptr %36, %0
  br i1 %.not.i.i.i, label %malloc_mutex_lock.exit.i, label %37

37:                                               ; preds = %31
  store ptr %0, ptr %35, align 8, !tbaa !74
  %38 = getelementptr inbounds nuw i8, ptr %26, i64 40
  %39 = load i64, ptr %38, align 8, !tbaa !75
  %40 = add i64 %39, 1
  store i64 %40, ptr %38, align 8, !tbaa !75
  br label %malloc_mutex_lock.exit.i

malloc_mutex_lock.exit.i:                         ; preds = %37, %31
  %41 = load ptr, ptr %25, align 8, !tbaa !165
  %42 = getelementptr inbounds nuw i8, ptr %41, i64 64
  store atomic i8 0, ptr %42 monotonic, align 1
  %43 = getelementptr inbounds nuw i8, ptr %41, i64 72
  %44 = tail call i32 @pthread_mutex_unlock(ptr noundef nonnull %43) #18
  %indvars.iv.next.i = add nuw nsw i64 %indvars.iv.i, 1
  %exitcond.not.i = icmp eq i64 %indvars.iv.next.i, 32
  br i1 %exitcond.not.i, label %arena_prepare_base_deletion_sync_finish.exit, label %.lr.ph.i

arena_prepare_base_deletion_sync_finish.exit:     ; preds = %malloc_mutex_lock.exit.i, %malloc_mutex_trylock.exit
  %.0 = phi i32 [ %21, %malloc_mutex_trylock.exit ], [ 0, %malloc_mutex_lock.exit.i ]
  store i32 %.0, ptr %3, align 4, !tbaa !3
  br label %45

45:                                               ; preds = %arena_prepare_base_deletion_sync_finish.exit, %17
  ret void
}